target datalayout = "e-m:e-p270:32:32-p271:32:32-p272:64:64-i64:64-i128:128-f80:128-n8:16:32:64-S128"
target triple = "x86_64-pc-linux-gnu"

%struct.hwloc_internal_distances_s = type { ptr, i32, i32, ptr, i32, ptr, ptr, i64, i32, ptr, ptr, ptr }

; Function Attrs: nounwind uwtable
define internal void @hwloc_backend_distances_add__cancel(ptr noundef %0) #0 {
  %2 = alloca ptr, align 8
  store ptr %0, ptr %2, align 8, !tbaa !46
  %3 = load ptr, ptr %2, align 8, !tbaa !46
  %4 = getelementptr inbounds nuw %struct.hwloc_internal_distances_s, ptr %3, i32 0, i32 0
  %5 = load ptr, ptr %4, align 8, !tbaa !53
  call void @free(ptr noundef %5) #15
  %6 = load ptr, ptr %2, align 8, !tbaa !46
  %7 = getelementptr inbounds nuw %struct.hwloc_internal_distances_s, ptr %6, i32 0, i32 5
  %8 = load ptr, ptr %7, align 8, !tbaa !55
  call void @free(ptr noundef %8) #15
  %9 = load ptr, ptr %2, align 8, !tbaa !46
  %10 = getelementptr inbounds nuw %struct.hwloc_internal_distances_s, ptr %9, i32 0, i32 9
  %11 = load ptr, ptr %10, align 8, !tbaa !56
  call void @free(ptr noundef %11) #15
  %12 = load ptr, ptr %2, align 8, !tbaa !46
  %13 = getelementptr inbounds nuw %struct.hwloc_internal_distances_s, ptr %12, i32 0, i32 3
  %14 = load ptr, ptr %13, align 8, !tbaa !54
  call void @free(ptr noundef %14) #15
  %15 = load ptr, ptr %2, align 8, !tbaa !46
  %16 = getelementptr inbounds nuw %struct.hwloc_internal_distances_s, ptr %15, i32 0, i32 6
  %17 = load ptr, ptr %16, align 8, !tbaa !57
  call void @free(ptr noundef %17) #15
  %18 = load ptr, ptr %2, align 8, !tbaa !46
  call void @free(ptr noundef %18) #15
  ret void
}

; Function Attrs: nounwind uwtable
define i32 @hwloc_distances_add_values(ptr noundef %0, ptr noundef %1, i32 noundef %2, ptr noundef %3, ptr noundef %4, i64 noundef %5) #0 {
  %7 = alloca i32, align 4
  %8 = alloca ptr, align 8
  %9 = alloca ptr, align 8
  %10 = alloca i32, align 4
  %11 = alloca ptr, align 8
  %12 = alloca ptr, align 8
  %13 = alloca i64, align 8
  %14 = alloca i32, align 4
  %15 = alloca ptr, align 8
  %16 = alloca ptr, align 8
  %17 = alloca i32, align 4
  %18 = alloca i32, align 4
  store ptr %0, ptr %8, align 8, !tbaa !3
  store ptr %1, ptr %9, align 8, !tbaa !81
  store i32 %2, ptr %10, align 4, !tbaa !38
  store ptr %3, ptr %11, align 8, !tbaa !82
  store ptr %4, ptr %12, align 8, !tbaa !83
  store i64 %5, ptr %13, align 8, !tbaa !80
  call void @llvm.lifetime.start.p0(i64 4, ptr %14) #15
  call void @llvm.lifetime.start.p0(i64 8, ptr %15) #15
  call void @llvm.lifetime.start.p0(i64 8, ptr %16) #15
  call void @llvm.lifetime.start.p0(i64 4, ptr %17) #15
  store i32 1, ptr %14, align 4, !tbaa !38
  br label %19

19:                                               ; preds = %33, %6
  %20 = load i32, ptr %14, align 4, !tbaa !38
  %21 = load i32, ptr %10, align 4, !tbaa !38
  %22 = icmp ult i32 %20, %21
  br i1 %22, label %23, label %36

23:                                               ; preds = %19
  %24 = load ptr, ptr %11, align 8, !tbaa !82
  %25 = load i32, ptr %14, align 4, !tbaa !38
  %26 = zext i32 %25 to i64
  %27 = getelementptr inbounds nuw ptr, ptr %24, i64 %26
  %28 = load ptr, ptr %27, align 8, !tbaa !84
  %29 = icmp ne ptr %28, null
  br i1 %29, label %32, label %30

30:                                               ; preds = %23
  %31 = call ptr @__errno_location() #17
  store i32 22, ptr %31, align 4, !tbaa !38
  br label %80

32:                                               ; preds = %23
  br label %33

33:                                               ; preds = %32
  %34 = load i32, ptr %14, align 4, !tbaa !38
  %35 = add i32 %34, 1
  store i32 %35, ptr %14, align 4, !tbaa !38
  br label %19, !llvm.loop !117

36:                                               ; preds = %19
  %37 = load i32, ptr %10, align 4, !tbaa !38
  %38 = zext i32 %37 to i64
  %39 = mul i64 %38, 8
  %40 = call noalias ptr @malloc(i64 noundef %39) #19
  store ptr %40, ptr %16, align 8, !tbaa !82
  %41 = load i32, ptr %10, align 4, !tbaa !38
  %42 = load i32, ptr %10, align 4, !tbaa !38
  %43 = mul i32 %41, %42
  %44 = zext i32 %43 to i64
  %45 = mul i64 %44, 8
  %46 = call noalias ptr @malloc(i64 noundef %45) #19
  store ptr %46, ptr %15, align 8, !tbaa !83
  %47 = load ptr, ptr %16, align 8, !tbaa !82
  %48 = icmp ne ptr %47, null
  br i1 %48, label %49, label %52

49:                                               ; preds = %36
  %50 = load ptr, ptr %15, align 8, !tbaa !83
  %51 = icmp ne ptr %50, null
  br i1 %51, label %53, label %52

52:                                               ; preds = %49, %36
  br label %77

53:                                               ; preds = %49
  %54 = load ptr, ptr %16, align 8, !tbaa !82
  %55 = load ptr, ptr %11, align 8, !tbaa !82
  %56 = load i32, ptr %10, align 4, !tbaa !38
  %57 = zext i32 %56 to i64
  %58 = mul i64 %57, 8
  call void @llvm.memcpy.p0.p0.i64(ptr align 8 %54, ptr align 8 %55, i64 %58, i1 false)
  %59 = load ptr, ptr %15, align 8, !tbaa !83
  %60 = load ptr, ptr %12, align 8, !tbaa !83
  %61 = load i32, ptr %10, align 4, !tbaa !38
  %62 = load i32, ptr %10, align 4, !tbaa !38
  %63 = mul i32 %61, %62
  %64 = zext i32 %63 to i64
  %65 = mul i64 %64, 8
  call void @llvm.memcpy.p0.p0.i64(ptr align 8 %59, ptr align 8 %60, i64 %65, i1 false)
  %66 = load ptr, ptr %8, align 8, !tbaa !3
  %67 = load ptr, ptr %9, align 8, !tbaa !81
  %68 = load i32, ptr %10, align 4, !tbaa !38
  %69 = load ptr, ptr %16, align 8, !tbaa !82
  %70 = load ptr, ptr %15, align 8, !tbaa !83
  %71 = load i64, ptr %13, align 8, !tbaa !80
  %72 = call i32 @hwloc_backend_distances_add_values(ptr noundef %66, ptr noundef %67, i32 noundef %68, ptr noundef %69, ptr noundef %70, i64 noundef %71)
  store i32 %72, ptr %17, align 4, !tbaa !38
  %73 = load i32, ptr %17, align 4, !tbaa !38
  %74 = icmp slt i32 %73, 0
  br i1 %74, label %75, label %76

75:                                               ; preds = %53
  store ptr null, ptr %9, align 8, !tbaa !81
  br label %77

76:                                               ; preds = %53
  store i32 0, ptr %7, align 4
  store i32 1, ptr %18, align 4
  br label %86

77:                                               ; preds = %75, %52
  %78 = load ptr, ptr %16, align 8, !tbaa !82
  call void @free(ptr noundef %78) #15
  %79 = load ptr, ptr %15, align 8, !tbaa !83
  call void @free(ptr noundef %79) #15
  br label %80

80:                                               ; preds = %77, %30
  %81 = load ptr, ptr %9, align 8, !tbaa !81
  %82 = icmp ne ptr %81, null
  br i1 %82, label %83, label %85

83:                                               ; preds = %80
  %84 = load ptr, ptr %9, align 8, !tbaa !81
  call void @hwloc_backend_distances_add__cancel(ptr noundef %84)
  br label %85

85:                                               ; preds = %83, %80
  store i32 -1, ptr %7, align 4
  store i32 1, ptr %18, align 4
  br label %86

86:                                               ; preds = %85, %76
  call void @llvm.lifetime.end.p0(i64 4, ptr %17) #15
  call void @llvm.lifetime.end.p0(i64 8, ptr %16) #15
  call void @llvm.lifetime.end.p0(i64 8, ptr %15) #15
  call void @llvm.lifetime.end.p0(i64 4, ptr %14) #15
  %87 = load i32, ptr %7, align 4
  ret i32 %87
}