; Function Attrs: nounwind uwtable
define range(i32 -1, 1) i32 @hwloc_distances_add_values(ptr readnone captures(none) %0, ptr noundef captures(address) %1, i32 noundef %2, ptr noundef readonly captures(none) %3, ptr noundef readonly captures(none) %4, i64 noundef %5) local_unnamed_addr #1 {
  %7 = icmp ugt i32 %2, 1
  %wide.trip.count = zext i32 %2 to i64
  br i1 %7, label %.lr.ph, label %._crit_edge

8:                                                ; preds = %.lr.ph
  %indvars.iv.next = add nuw nsw i64 %indvars.iv, 1
  %exitcond.not = icmp eq i64 %indvars.iv.next, %wide.trip.count
  br i1 %exitcond.not, label %._crit_edge, label %.lr.ph, !llvm.loop !111

.lr.ph:                                           ; preds = %6, %8
  %indvars.iv = phi i64 [ %indvars.iv.next, %8 ], [ 1, %6 ]
  %9 = getelementptr inbounds nuw ptr, ptr %3, i64 %indvars.iv
  %10 = load ptr, ptr %9, align 8, !tbaa !72
  %.not = icmp eq ptr %10, null
  br i1 %.not, label %11, label %8

11:                                               ; preds = %.lr.ph
  %12 = tail call ptr @__errno_location() #30
  store i32 22, ptr %12, align 4, !tbaa !3
  br label %25

._crit_edge:                                      ; preds = %8, %6
  %13 = shl nuw nsw i64 %wide.trip.count, 3
  %14 = tail call noalias ptr @malloc(i64 noundef %13) #29
  %15 = mul i32 %2, %2
  %16 = zext i32 %15 to i64
  %17 = shl nuw nsw i64 %16, 3
  %18 = tail call noalias ptr @malloc(i64 noundef %17) #29
  %19 = icmp ne ptr %14, null
  %20 = icmp ne ptr %18, null
  %or.cond = and i1 %19, %20
  br i1 %or.cond, label %21, label %24

21:                                               ; preds = %._crit_edge
  tail call void @llvm.memcpy.p0.p0.i64(ptr nonnull align 8 %14, ptr align 8 %3, i64 %13, i1 false)
  tail call void @llvm.memcpy.p0.p0.i64(ptr nonnull align 8 %18, ptr align 8 %4, i64 %17, i1 false)
  %22 = tail call i32 @hwloc_backend_distances_add_values(ptr poison, ptr noundef %1, i32 noundef %2, ptr noundef nonnull %14, ptr noundef nonnull %18, i64 noundef %5)
  %23 = icmp slt i32 %22, 0
  br i1 %23, label %24, label %36

24:                                               ; preds = %21, %._crit_edge
  %.1 = phi ptr [ %1, %._crit_edge ], [ null, %21 ]
  tail call void @free(ptr noundef %14) #27
  tail call void @free(ptr noundef %18) #27
  br label %25

25:                                               ; preds = %24, %11
  %.029 = phi ptr [ %1, %11 ], [ %.1, %24 ]
  %.not34 = icmp eq ptr %.029, null
  br i1 %.not34, label %36, label %26

26:                                               ; preds = %25
  %27 = load ptr, ptr %.029, align 8, !tbaa !43
  tail call void @free(ptr noundef %27) #27
  %28 = getelementptr inbounds nuw i8, ptr %.029, i64 32
  %29 = load ptr, ptr %28, align 8, !tbaa !45
  tail call void @free(ptr noundef %29) #27
  %30 = getelementptr inbounds nuw i8, ptr %.029, i64 64
  %31 = load ptr, ptr %30, align 8, !tbaa !46
  tail call void @free(ptr noundef %31) #27
  %32 = getelementptr inbounds nuw i8, ptr %.029, i64 16
  %33 = load ptr, ptr %32, align 8, !tbaa !44
  tail call void @free(ptr noundef %33) #27
  %34 = getelementptr inbounds nuw i8, ptr %.029, i64 40
  %35 = load ptr, ptr %34, align 8, !tbaa !47
  tail call void @free(ptr noundef %35) #27
  tail call void @free(ptr noundef nonnull %.029) #27
  br label %36

36:                                               ; preds = %25, %26, %21
  %.0 = phi i32 [ 0, %21 ], [ -1, %26 ], [ -1, %25 ]
  ret i32 %.0
}